target datalayout = "e-m:e-p270:32:32-p271:32:32-p272:64:64-i64:64-i128:128-f80:128-n8:16:32:64-S128"
target triple = "x86_64-pc-linux-gnu"

%struct.darktable_t = type { %struct.dt_codepath_t, i32, i32, ptr, ptr, ptr, ptr, ptr, ptr, ptr, ptr, ptr, ptr, ptr, ptr, ptr, ptr, ptr, ptr, ptr, ptr, ptr, ptr, ptr, ptr, ptr, ptr, ptr, ptr, ptr, [64 x %struct.dt_pthread_mutex_t], %struct.dt_pthread_mutex_t, %struct.dt_pthread_mutex_t, %struct.dt_pthread_mutex_t, %struct.dt_pthread_mutex_t, %struct.dt_pthread_mutex_t, ptr, ptr, ptr, ptr, ptr, ptr, ptr, ptr, ptr, ptr, ptr, ptr, ptr, %struct.dt_lua_state_t, ptr, double, ptr, i32, [47 x i32], i32, i32, ptr, ptr, %struct.dt_sys_resources_t, %struct.dt_backthumb_t, %struct.dt_gimp_t }
%struct.dt_codepath_t = type { i8, [3 x i8] }
%struct.dt_pthread_mutex_t = type { %union.pthread_mutex_t }
%union.pthread_mutex_t = type { %struct.__pthread_mutex_s }
%struct.__pthread_mutex_s = type { i32, i32, i32, i32, i32, i16, i16, %struct.__pthread_internal_list }
%struct.__pthread_internal_list = type { ptr, ptr }
%struct.dt_lua_state_t = type { i32 }
%struct.dt_sys_resources_t = type { i64, i64, ptr, ptr, i32 }
%struct.dt_backthumb_t = type { double, double, i32, i32, i32, i32 }
%struct.dt_gimp_t = type { i32, ptr, ptr, i32, i32 }

@darktable = external global %struct.darktable_t, align 8
@.str.3 = private unnamed_addr constant [10 x i8] c"darktable\00", align 1
@.str.4 = private unnamed_addr constant [20 x i8] c"darktable.configdir\00", align 1

; Function Attrs: nounwind uwtable
define i32 @dt_loc_init_user_config_dir(ptr noundef %0) #0 {
  %2 = alloca ptr, align 8
  %3 = alloca ptr, align 8
  store ptr %0, ptr %2, align 8, !tbaa !6
  call void @llvm.lifetime.start.p0(i64 8, ptr %3) #10
  %4 = call ptr @g_get_user_config_dir()
  %5 = call noalias ptr (ptr, ...) @g_build_filename(ptr noundef %4, ptr noundef @.str.3, ptr noundef null)
  store ptr %5, ptr %3, align 8, !tbaa !6
  %6 = load ptr, ptr %2, align 8, !tbaa !6
  %7 = load ptr, ptr %3, align 8, !tbaa !6
  %8 = call ptr @dt_loc_init_generic(ptr noundef %6, ptr noundef null, ptr noundef %7)
  store ptr %8, ptr getelementptr inbounds nuw (%struct.darktable_t, ptr @darktable, i32 0, i32 42), align 8, !tbaa !55
  %9 = load ptr, ptr %3, align 8, !tbaa !6
  call void @g_free(ptr noundef %9)
  %10 = load ptr, ptr getelementptr inbounds nuw (%struct.darktable_t, ptr @darktable, i32 0, i32 42), align 8, !tbaa !55
  %11 = call i32 @dt_check_opendir(ptr noundef @.str.4, ptr noundef %10)
  call void @llvm.lifetime.end.p0(i64 8, ptr %3) #10
  ret i32 %11
}